; Function Attrs: mustprogress nofree norecurse nosync nounwind willreturn memory(read, inaccessiblemem: none) uwtable
define internal noundef zeroext i1 @"_ZNSt17_Function_handlerIFbRKN4llvm13LegalityQueryEEZNS0_20AArch64LegalizerInfoC1ERKNS0_16AArch64SubtargetEE4$_12E9_M_invokeERKSt9_Any_dataS3_"(ptr nocapture noundef nonnull readonly align 8 dereferenceable(16) %0, ptr nocapture noundef nonnull readonly align 8 dereferenceable(40) %1) #11 align 2 {
  %.val = load i64, ptr %0, align 8
  %3 = getelementptr inbounds i8, ptr %1, i64 8
  %.val2 = load ptr, ptr %3, align 8
  %.val2.val = load i64, ptr %.val2, align 8
  %spec.select.i.i.i.i = icmp eq i64 %.val2.val, %.val
  br i1 %spec.select.i.i.i.i, label %4, label %"_ZSt10__invoke_rIbRZN4llvm20AArch64LegalizerInfoC1ERKNS0_16AArch64SubtargetEE4$_12JRKNS0_13LegalityQueryEEENSt9enable_ifIX16is_invocable_r_vIT_T0_DpT1_EESB_E4typeEOSC_DpOSD_.exit"

4:                                                ; preds = %2
  %5 = getelementptr inbounds i8, ptr %1, i64 24
  %.val3 = load ptr, ptr %5, align 8
  %6 = getelementptr inbounds nuw i8, ptr %.val3, i64 16
  %7 = load i32, ptr %6, align 8
  %8 = icmp ne i32 %7, 0
  br label %"_ZSt10__invoke_rIbRZN4llvm20AArch64LegalizerInfoC1ERKNS0_16AArch64SubtargetEE4$_12JRKNS0_13LegalityQueryEEENSt9enable_ifIX16is_invocable_r_vIT_T0_DpT1_EESB_E4typeEOSC_DpOSD_.exit"

"_ZSt10__invoke_rIbRZN4llvm20AArch64LegalizerInfoC1ERKNS0_16AArch64SubtargetEE4$_12JRKNS0_13LegalityQueryEEENSt9enable_ifIX16is_invocable_r_vIT_T0_DpT1_EESB_E4typeEOSC_DpOSD_.exit": ; preds = %2, %4
  %9 = phi i1 [ false, %2 ], [ %8, %4 ]
  ret i1 %9
}